; Function Attrs: mustprogress nounwind uwtable
define hidden void @_ZN6google8protobuf28UninterpretedOption_NamePartD2Ev(ptr noundef nonnull align 8 dereferenceable(40) %0) unnamed_addr #6 align 2 personality ptr @__gxx_personality_v0 {
  %2 = getelementptr inbounds nuw i8, ptr %0, i64 8
  %3 = load i64, ptr %2, align 8, !tbaa !8
  %4 = and i64 %3, 1
  %.not.i = icmp eq i64 %4, 0
  %5 = and i64 %3, -4
  %6 = inttoptr i64 %5 to ptr
  br i1 %.not.i, label %_ZNK6google8protobuf11MessageLite21GetArenaForAllocationEv.exit, label %7, !prof !19

7:                                                ; preds = %1
  %8 = load ptr, ptr %6, align 8, !tbaa !20
  br label %_ZNK6google8protobuf11MessageLite21GetArenaForAllocationEv.exit

_ZNK6google8protobuf11MessageLite21GetArenaForAllocationEv.exit: ; preds = %7, %1
  %.0.i.i = phi ptr [ %8, %7 ], [ %6, %1 ]
  %.not = icmp eq ptr %.0.i.i, null
  br i1 %.not, label %9, label %_ZN6google8protobuf8internal16InternalMetadata6DeleteINS0_15UnknownFieldSetEEEvv.exit

9:                                                ; preds = %_ZNK6google8protobuf11MessageLite21GetArenaForAllocationEv.exit
  %10 = getelementptr inbounds nuw i8, ptr %0, i64 24
  %11 = load ptr, ptr %10, align 8, !tbaa !84
  %12 = icmp eq ptr %11, @_ZN6google8protobuf8internal26fixed_address_empty_stringB5cxx11E
  br i1 %12, label %_ZN6google8protobuf28UninterpretedOption_NamePart10SharedDtorEv.exit, label %13

13:                                               ; preds = %9
  invoke void @_ZN6google8protobuf8internal14ArenaStringPtr22DestroyNoArenaSlowPathEv(ptr noundef nonnull align 8 dereferenceable(8) %10)
          to label %._ZN6google8protobuf28UninterpretedOption_NamePart10SharedDtorEv.exit_crit_edge unwind label %26

._ZN6google8protobuf28UninterpretedOption_NamePart10SharedDtorEv.exit_crit_edge: ; preds = %13
  %.pre = load i64, ptr %2, align 8, !tbaa !8
  %.pre4 = and i64 %.pre, 1
  br label %_ZN6google8protobuf28UninterpretedOption_NamePart10SharedDtorEv.exit

_ZN6google8protobuf28UninterpretedOption_NamePart10SharedDtorEv.exit: ; preds = %._ZN6google8protobuf28UninterpretedOption_NamePart10SharedDtorEv.exit_crit_edge, %9
  %.pre-phi = phi i64 [ %.pre4, %._ZN6google8protobuf28UninterpretedOption_NamePart10SharedDtorEv.exit_crit_edge ], [ %4, %9 ]
  %14 = phi i64 [ %.pre, %._ZN6google8protobuf28UninterpretedOption_NamePart10SharedDtorEv.exit_crit_edge ], [ %3, %9 ]
  %.not.i1 = icmp eq i64 %.pre-phi, 0
  br i1 %.not.i1, label %_ZN6google8protobuf8internal16InternalMetadata6DeleteINS0_15UnknownFieldSetEEEvv.exit, label %15

15:                                               ; preds = %_ZN6google8protobuf28UninterpretedOption_NamePart10SharedDtorEv.exit
  invoke void @_ZN6google8protobuf8internal16InternalMetadata21DeleteOutOfLineHelperINS0_15UnknownFieldSetEEEvv(ptr noundef nonnull align 8 dereferenceable(8) %2)
          to label %._ZN6google8protobuf8internal16InternalMetadata6DeleteINS0_15UnknownFieldSetEEEvv.exit_crit_edge unwind label %26

._ZN6google8protobuf8internal16InternalMetadata6DeleteINS0_15UnknownFieldSetEEEvv.exit_crit_edge: ; preds = %15
  %.pre3 = load i64, ptr %2, align 8, !tbaa !8
  br label %_ZN6google8protobuf8internal16InternalMetadata6DeleteINS0_15UnknownFieldSetEEEvv.exit

_ZN6google8protobuf8internal16InternalMetadata6DeleteINS0_15UnknownFieldSetEEEvv.exit: ; preds = %._ZN6google8protobuf8internal16InternalMetadata6DeleteINS0_15UnknownFieldSetEEEvv.exit_crit_edge, %_ZN6google8protobuf28UninterpretedOption_NamePart10SharedDtorEv.exit, %_ZNK6google8protobuf11MessageLite21GetArenaForAllocationEv.exit
  %16 = phi i64 [ %.pre3, %._ZN6google8protobuf8internal16InternalMetadata6DeleteINS0_15UnknownFieldSetEEEvv.exit_crit_edge ], [ %14, %_ZN6google8protobuf28UninterpretedOption_NamePart10SharedDtorEv.exit ], [ %3, %_ZNK6google8protobuf11MessageLite21GetArenaForAllocationEv.exit ]
  store ptr getelementptr inbounds nuw inrange(-16, 104) (i8, ptr @_ZTVN6google8protobuf11MessageLiteE, i64 16), ptr %0, align 8, !tbaa !11
  %17 = and i64 %16, 2
  %.not.i.i = icmp eq i64 %17, 0
  br i1 %.not.i.i, label %_ZN6google8protobuf11MessageLiteD2Ev.exit, label %18

18:                                               ; preds = %_ZN6google8protobuf8internal16InternalMetadata6DeleteINS0_15UnknownFieldSetEEEvv.exit
  %19 = and i64 %16, 1
  %.not1.i.i = icmp eq i64 %19, 0
  %20 = and i64 %16, -4
  %21 = inttoptr i64 %20 to ptr
  br i1 %.not1.i.i, label %_ZNK6google8protobuf8internal16InternalMetadata5arenaEv.exit.i.i, label %22, !prof !19

22:                                               ; preds = %18
  %23 = load ptr, ptr %21, align 8, !tbaa !20
  br label %_ZNK6google8protobuf8internal16InternalMetadata5arenaEv.exit.i.i

_ZNK6google8protobuf8internal16InternalMetadata5arenaEv.exit.i.i: ; preds = %22, %18
  %.0.i.i.i = phi ptr [ %23, %22 ], [ %21, %18 ]
  %24 = icmp eq ptr %.0.i.i.i, null
  br i1 %24, label %_ZN6google8protobuf11MessageLiteD2Ev.exit, label %25

25:                                               ; preds = %_ZNK6google8protobuf8internal16InternalMetadata5arenaEv.exit.i.i
  tail call void @_ZN6google8protobuf8internal15ThreadSafeArenaD1Ev(ptr noundef nonnull align 8 dereferenceable(32) %.0.i.i.i) #24
  tail call void @_ZdlPv(ptr noundef nonnull %.0.i.i.i) #25
  br label %_ZN6google8protobuf11MessageLiteD2Ev.exit

_ZN6google8protobuf11MessageLiteD2Ev.exit:        ; preds = %_ZN6google8protobuf8internal16InternalMetadata6DeleteINS0_15UnknownFieldSetEEEvv.exit, %_ZNK6google8protobuf8internal16InternalMetadata5arenaEv.exit.i.i, %25
  ret void

26:                                               ; preds = %15, %13
  %27 = landingpad { ptr, i32 }
          catch ptr null
  %28 = extractvalue { ptr, i32 } %27, 0
  tail call void @__clang_call_terminate(ptr %28) #23
  unreachable
}